; Function Attrs: mustprogress nofree norecurse nosync nounwind willreturn memory(read, argmem: readwrite, inaccessiblemem: none) uwtable
define void @osqp_get_dimensions(ptr noundef readonly %0, ptr nocapture noundef writeonly %1, ptr nocapture noundef writeonly %2) local_unnamed_addr #4 {
  %.not = icmp eq ptr %0, null
  br i1 %.not, label %9, label %4

4:                                                ; preds = %3
  %5 = getelementptr inbounds i8, ptr %0, i64 24
  %6 = load ptr, ptr %5, align 8
  %.not11 = icmp eq ptr %6, null
  br i1 %.not11, label %9, label %7

7:                                                ; preds = %4
  %8 = load ptr, ptr %6, align 8
  %.not12 = icmp eq ptr %8, null
  br i1 %.not12, label %9, label %10

9:                                                ; preds = %7, %4, %3
  store i64 -1, ptr %1, align 8
  br label %16

10:                                               ; preds = %7
  %11 = getelementptr inbounds i8, ptr %8, i64 8
  %12 = load i64, ptr %11, align 8
  store i64 %12, ptr %1, align 8
  %13 = load ptr, ptr %5, align 8
  %14 = load ptr, ptr %13, align 8
  %15 = load i64, ptr %14, align 8
  br label %16

16:                                               ; preds = %10, %9
  %storemerge = phi i64 [ -1, %9 ], [ %15, %10 ]
  store i64 %storemerge, ptr %2, align 8
  ret void
}